; Function Attrs: mustprogress nofree norecurse nosync nounwind willreturn memory(read, inaccessiblemem: none) uwtable
define noundef ptr @_ZNK5draco10PointCloud17GetNamedAttributeENS_17GeometryAttribute4TypeE(ptr nocapture noundef nonnull readonly align 8 dereferenceable(164) %0, i32 noundef %1) local_unnamed_addr #5 align 2 {
  %3 = icmp eq i32 %1, -1
  %4 = icmp sgt i32 %1, 4
  %or.cond.i.i.i = or i1 %3, %4
  br i1 %or.cond.i.i.i, label %_ZNK5draco10PointCloud17GetNamedAttributeENS_17GeometryAttribute4TypeEi.exit, label %_ZNK5draco10PointCloud18NumNamedAttributesENS_17GeometryAttribute4TypeE.exit.i.i

_ZNK5draco10PointCloud18NumNamedAttributesENS_17GeometryAttribute4TypeE.exit.i.i: ; preds = %2
  %5 = getelementptr inbounds i8, ptr %0, i64 40
  %6 = sext i32 %1 to i64
  %7 = getelementptr inbounds [5 x %"class.std::vector.2"], ptr %5, i64 0, i64 %6
  %8 = getelementptr inbounds i8, ptr %7, i64 8
  %9 = load ptr, ptr %8, align 8
  %10 = load ptr, ptr %7, align 8
  %11 = ptrtoint ptr %9 to i64
  %12 = ptrtoint ptr %10 to i64
  %13 = sub i64 %11, %12
  %14 = lshr exact i64 %13, 2
  %15 = trunc i64 %14 to i32
  %.not.i.i = icmp sgt i32 %15, 0
  br i1 %.not.i.i, label %_ZNK5draco10PointCloud19GetNamedAttributeIdENS_17GeometryAttribute4TypeEi.exit.i, label %_ZNK5draco10PointCloud17GetNamedAttributeENS_17GeometryAttribute4TypeEi.exit

_ZNK5draco10PointCloud19GetNamedAttributeIdENS_17GeometryAttribute4TypeEi.exit.i: ; preds = %_ZNK5draco10PointCloud18NumNamedAttributesENS_17GeometryAttribute4TypeE.exit.i.i
  %16 = load i32, ptr %10, align 4
  %17 = icmp eq i32 %16, -1
  br i1 %17, label %_ZNK5draco10PointCloud17GetNamedAttributeENS_17GeometryAttribute4TypeEi.exit, label %18

18:                                               ; preds = %_ZNK5draco10PointCloud19GetNamedAttributeIdENS_17GeometryAttribute4TypeEi.exit.i
  %19 = getelementptr inbounds i8, ptr %0, i64 16
  %20 = sext i32 %16 to i64
  %21 = load ptr, ptr %19, align 8
  %22 = getelementptr inbounds %"class.std::unique_ptr.7", ptr %21, i64 %20
  %23 = load ptr, ptr %22, align 8
  br label %_ZNK5draco10PointCloud17GetNamedAttributeENS_17GeometryAttribute4TypeEi.exit

_ZNK5draco10PointCloud17GetNamedAttributeENS_17GeometryAttribute4TypeEi.exit: ; preds = %2, %_ZNK5draco10PointCloud18NumNamedAttributesENS_17GeometryAttribute4TypeE.exit.i.i, %_ZNK5draco10PointCloud19GetNamedAttributeIdENS_17GeometryAttribute4TypeEi.exit.i, %18
  %.0.i = phi ptr [ %23, %18 ], [ null, %_ZNK5draco10PointCloud19GetNamedAttributeIdENS_17GeometryAttribute4TypeEi.exit.i ], [ null, %_ZNK5draco10PointCloud18NumNamedAttributesENS_17GeometryAttribute4TypeE.exit.i.i ], [ null, %2 ]
  ret ptr %.0.i
}